; Function Attrs: mustprogress uwtable
define void @_ZNK4lean11environment3addERKNS_11declarationEb(ptr dead_on_unwind noalias writable sret(%"class.lean::environment") align 8 %0, ptr noundef nonnull align 8 dereferenceable(8) %1, ptr noundef nonnull align 8 dereferenceable(8) %2, i1 noundef zeroext %3) local_unnamed_addr #0 align 2 personality ptr @__gxx_personality_v0 {
  %5 = load ptr, ptr %2, align 8, !tbaa !3
  %6 = ptrtoint ptr %5 to i64
  %7 = and i64 %6, 1
  %.not.i.i.i = icmp eq i64 %7, 0
  br i1 %.not.i.i.i, label %11, label %8

8:                                                ; preds = %4
  %9 = lshr i64 %6, 1
  %10 = trunc i64 %9 to i32
  br label %_ZNK4lean11declaration4kindEv.exit

11:                                               ; preds = %4
  %12 = getelementptr i8, ptr %5, i64 4
  %.val.i.i.i = load i32, ptr %12, align 4
  %13 = lshr i32 %.val.i.i.i, 24
  br label %_ZNK4lean11declaration4kindEv.exit

_ZNK4lean11declaration4kindEv.exit:               ; preds = %8, %11
  %.0.i.i.i = phi i32 [ %10, %8 ], [ %13, %11 ]
  switch i32 %.0.i.i.i, label %21 [
    i32 0, label %14
    i32 1, label %15
    i32 2, label %16
    i32 3, label %17
    i32 5, label %18
    i32 4, label %19
    i32 6, label %20
  ]

14:                                               ; preds = %_ZNK4lean11declaration4kindEv.exit
  tail call void @_ZNK4lean11environment9add_axiomERKNS_11declarationEb(ptr dead_on_unwind writable sret(%"class.lean::environment") align 8 %0, ptr noundef nonnull align 8 dereferenceable(8) %1, ptr noundef nonnull align 8 dereferenceable(8) %2, i1 noundef zeroext %3)
  br label %26

15:                                               ; preds = %_ZNK4lean11declaration4kindEv.exit
  tail call void @_ZNK4lean11environment14add_definitionERKNS_11declarationEb(ptr dead_on_unwind writable sret(%"class.lean::environment") align 8 %0, ptr noundef nonnull align 8 dereferenceable(8) %1, ptr noundef nonnull align 8 dereferenceable(8) %2, i1 noundef zeroext %3)
  br label %26

16:                                               ; preds = %_ZNK4lean11declaration4kindEv.exit
  tail call void @_ZNK4lean11environment11add_theoremERKNS_11declarationEb(ptr dead_on_unwind writable sret(%"class.lean::environment") align 8 %0, ptr noundef nonnull align 8 dereferenceable(8) %1, ptr noundef nonnull align 8 dereferenceable(8) %2, i1 noundef zeroext %3)
  br label %26

17:                                               ; preds = %_ZNK4lean11declaration4kindEv.exit
  tail call void @_ZNK4lean11environment10add_opaqueERKNS_11declarationEb(ptr dead_on_unwind writable sret(%"class.lean::environment") align 8 %0, ptr noundef nonnull align 8 dereferenceable(8) %1, ptr noundef nonnull align 8 dereferenceable(8) %2, i1 noundef zeroext %3)
  br label %26

18:                                               ; preds = %_ZNK4lean11declaration4kindEv.exit
  tail call void @_ZNK4lean11environment10add_mutualERKNS_11declarationEb(ptr dead_on_unwind writable sret(%"class.lean::environment") align 8 %0, ptr noundef nonnull align 8 dereferenceable(8) %1, ptr noundef nonnull align 8 dereferenceable(8) %2, i1 noundef zeroext %3)
  br label %26

19:                                               ; preds = %_ZNK4lean11declaration4kindEv.exit
  tail call void @_ZNK4lean11environment8add_quotEv(ptr dead_on_unwind writable sret(%"class.lean::environment") align 8 %0, ptr noundef nonnull align 8 dereferenceable(8) %1)
  br label %26

20:                                               ; preds = %_ZNK4lean11declaration4kindEv.exit
  tail call void @_ZNK4lean11environment13add_inductiveERKNS_11declarationE(ptr dead_on_unwind writable sret(%"class.lean::environment") align 8 %0, ptr noundef nonnull align 8 dereferenceable(8) %1, ptr noundef nonnull align 8 dereferenceable(8) %2)
  br label %26

21:                                               ; preds = %_ZNK4lean11declaration4kindEv.exit
  %22 = tail call ptr @__cxa_allocate_exception(i64 40) #20
  %23 = getelementptr inbounds nuw i8, ptr %22, i64 8
  %24 = getelementptr inbounds nuw i8, ptr %22, i64 24
  store ptr %24, ptr %23, align 8, !tbaa !84
  %25 = getelementptr inbounds nuw i8, ptr %22, i64 16
  store i64 0, ptr %25, align 8, !tbaa !87
  store i8 0, ptr %24, align 1, !tbaa !89
  store ptr getelementptr inbounds nuw inrange(-16, 24) (i8, ptr @_ZTVN4lean19unreachable_reachedE, i64 16), ptr %22, align 8, !tbaa !26
  tail call void @__cxa_throw(ptr nonnull %22, ptr nonnull @_ZTIN4lean19unreachable_reachedE, ptr nonnull @_ZN4lean9throwableD2Ev) #24
  unreachable

26:                                               ; preds = %20, %19, %18, %17, %16, %15, %14
  ret void
}